; Function Attrs: mustprogress nounwind willreturn uwtable
define void @OSQPVectorf_free(ptr noundef %0) local_unnamed_addr #8 {
  %.not = icmp eq ptr %0, null
  br i1 %.not, label %4, label %2

2:                                                ; preds = %1
  %3 = load ptr, ptr %0, align 8
  tail call void @free(ptr noundef %3) #19
  br label %4

4:                                                ; preds = %2, %1
  tail call void @free(ptr noundef %0) #19
  ret void
}